ccopy_reg
_reconstructor
p1
(c__main__
Appointment
p2
c__builtin__
tuple
p3
(Vyy
p4
cdatetime
datetime
p5
(S'\x07\xe0\n\x18\x13*\x17\n2\xa3'
tRp6
g5
(S'\x07\xe0\n\x18\x13*\x17\n2\xa5'
tRp7
ttRp8
.ccopy_reg
_reconstructor
p1
(c__main__
Appointment
p2
c__builtin__
tuple
p3
(Vyy
p4
cdatetime
datetime
p5
(S'\x07\xe0\n\x18\x13*5\x0b\xb9\xc6'
tRp6
g5
(S'\x07\xe0\n\x18\x13*5\x0b\xb9\xc8'
tRp7
ttRp8
.ccopy_reg
_reconstructor
p1
(c__main__
Appointment
p2
c__builtin__
tuple
p3
(Vyy
p4
cdatetime
datetime
p5
(S'\x07\xe0\n\x18\x13,\x05\nUO'
tRp6
g5
(S'\x07\xe0\n\x18\x13,\x05\nUQ'
tRp7
ttRp8
.ccopy_reg
_reconstructor
p1
(c__main__
Appointment
p2
c__builtin__
tuple
p3
(Vyy
p4
cdatetime
datetime
p5
(S'\x07\xe0\n\x18\x13-\x17\r9\xe0'
tRp6
g5
(S'\x07\xe0\n\x18\x13-\x17\r9\xe2'
tRp7
ttRp8
.ccopy_reg
_reconstructor
p1
(cdialogue_db
Appointment
p2
c__builtin__
tuple
p3
(S'Yahhoo oye'
p4
cdatetime
datetime
p5
(S'\x07\xe0\n\x1a\t"/\x08mU'
tRp6
g5
(S'\x07\xe0\n\x1a\n\x0e/\x08mU'
tRp7
ttRp8
.ccopy_reg
_reconstructor
p1
(cdialogue_db
Appointment
p2
c__builtin__
tuple
p3
(S'Yahhoo oye'
p4
cdatetime
datetime
p5
(S'\x07\xe0\n\x1a\t&-\x06\x07\x18'
tRp6
g5
(S'\x07\xe0\n\x1a\n\x12-\x06\x07\x18'
tRp7
ttRp8
.ccopy_reg
_reconstructor
p1
(cdialogue_db
Appointment
p2
c__builtin__
tuple
p3
(S'Yahhoo oye'
p4
cdatetime
datetime
p5
(S'\x07\xe0\n\x1a\t)\x1f\x00\x12:'
tRp6
g5
(S'\x07\xe0\n\x1a\n\x15\x1f\x00\x12:'
tRp7
ttRp8
.ccopy_reg
_reconstructor
p1
(cdialogue_db
Appointment
p2
c__builtin__
tuple
p3
(S'Yahhoo oye'
p4
cdatetime
datetime
p5
(S'\x07\xe0\n\x1a\x11\x00\x00\x00\x00\x00'
tRp6
g5
(S'\x07\xe0\n\x1a\x12\x00\x00\x00\x00\x00'
tRp7
ttRp8
.